target datalayout = "e-m:e-p270:32:32-p271:32:32-p272:64:64-i64:64-i128:128-f80:128-n8:16:32:64-S128"
target triple = "x86_64-pc-linux-gnu"

%struct.OperationConfig = type { i8, ptr, ptr, ptr, ptr, ptr, ptr, i8, i8, i8, i64, i8, i8, i8, i8, i8, ptr, i8, ptr, i8, ptr, i64, ptr, %struct.dynbuf, ptr, ptr, i64, i64, i64, i64, ptr, ptr, ptr, ptr, i64, i64, i16, ptr, i64, i64, i64, i64, ptr, ptr, ptr, ptr, ptr, ptr, ptr, ptr, ptr, ptr, ptr, ptr, ptr, ptr, i32, ptr, ptr, ptr, ptr, i8, ptr, i8, i8, i8, i8, i8, i8, i8, i8, i8, i8, i8, i8, i8, i8, ptr, ptr, ptr, ptr, ptr, ptr, i64, ptr, ptr, ptr, ptr, ptr, ptr, ptr, ptr, ptr, ptr, ptr, ptr, ptr, ptr, ptr, ptr, ptr, ptr, ptr, ptr, ptr, ptr, ptr, ptr, ptr, ptr, ptr, ptr, ptr, ptr, i8, ptr, ptr, ptr, ptr, i64, i8, i8, i8, i8, i8, i8, i8, i8, i8, i8, i8, i8, i8, i8, i8, i8, i8, i8, i8, i8, ptr, ptr, ptr, ptr, i64, i64, i64, i64, i64, i32, i64, ptr, ptr, ptr, ptr, ptr, ptr, ptr, ptr, i32, i64, i64, i8, i8, i8, i8, i32, ptr, i8, i64, ptr, ptr, i8, i8, i64, i8, i8, i64, i64, ptr, ptr, i32, i64, i64, i8, i8, i8, i8, i8, i8, i8, i8, i64, i64, i8, i32, i8, i64, i8, i8, i8, i8, i8, i8, i8, i8, i8, ptr, i8, ptr, i8, i8, i8, i64, i8, i8, i8, i64, i8, ptr, i8, ptr, i32, i8, ptr, ptr, ptr, %struct.State, i8, i8, ptr, ptr, ptr }
%struct.dynbuf = type { ptr, i64, i64, i64 }
%struct.State = type { ptr, ptr, ptr, ptr, ptr, ptr, i64, i64, i64, i64 }

@__const.customrequest_helper.dflt = private unnamed_addr constant [6 x ptr] [ptr @.str.26, ptr @.str.26, ptr @.str.27, ptr @.str.28, ptr @.str.28, ptr @.str.29], align 16
@.str.30 = private unnamed_addr constant [60 x i8] c"Unnecessary use of -X or --request, %s is already inferred.\00", align 1
@.str.31 = private unnamed_addr constant [5 x i8] c"head\00", align 1
@.str.32 = private unnamed_addr constant [118 x i8] c"Setting custom HTTP method to HEAD with -X/--request may not work the way you want. Consider using -I/--head instead.\00", align 1

; Function Attrs: nounwind uwtable
define dso_local void @customrequest_helper(ptr noundef %0, i32 noundef %1, ptr noundef %2) #0 {
  %4 = alloca ptr, align 8
  %5 = alloca i32, align 4
  %6 = alloca ptr, align 8
  %7 = alloca [6 x ptr], align 16
  store ptr %0, ptr %4, align 8, !tbaa !8
  store i32 %1, ptr %5, align 4, !tbaa !4
  store ptr %2, ptr %6, align 8, !tbaa !26
  call void @llvm.lifetime.start.p0(i64 48, ptr %7) #4
  call void @llvm.memcpy.p0.p0.i64(ptr align 16 %7, ptr align 16 @__const.customrequest_helper.dflt, i64 48, i1 false)
  %8 = load ptr, ptr %6, align 8, !tbaa !26
  %9 = icmp ne ptr %8, null
  br i1 %9, label %11, label %10

10:                                               ; preds = %3
  br label %37

11:                                               ; preds = %3
  %12 = load ptr, ptr %6, align 8, !tbaa !26
  %13 = load i32, ptr %5, align 4, !tbaa !4
  %14 = zext i32 %13 to i64
  %15 = getelementptr inbounds nuw [6 x ptr], ptr %7, i64 0, i64 %14
  %16 = load ptr, ptr %15, align 8, !tbaa !26
  %17 = call i32 @curl_strequal(ptr noundef %12, ptr noundef %16)
  %18 = icmp ne i32 %17, 0
  br i1 %18, label %19, label %27

19:                                               ; preds = %11
  %20 = load ptr, ptr %4, align 8, !tbaa !8
  %21 = getelementptr inbounds nuw %struct.OperationConfig, ptr %20, i32 0, i32 224
  %22 = load ptr, ptr %21, align 8, !tbaa !12
  %23 = load i32, ptr %5, align 4, !tbaa !4
  %24 = zext i32 %23 to i64
  %25 = getelementptr inbounds nuw [6 x ptr], ptr %7, i64 0, i64 %24
  %26 = load ptr, ptr %25, align 8, !tbaa !26
  call void (ptr, ptr, ...) @notef(ptr noundef %22, ptr noundef @.str.30, ptr noundef %26)
  br label %36

27:                                               ; preds = %11
  %28 = load ptr, ptr %6, align 8, !tbaa !26
  %29 = call i32 @curl_strequal(ptr noundef %28, ptr noundef @.str.31)
  %30 = icmp ne i32 %29, 0
  br i1 %30, label %31, label %35

31:                                               ; preds = %27
  %32 = load ptr, ptr %4, align 8, !tbaa !8
  %33 = getelementptr inbounds nuw %struct.OperationConfig, ptr %32, i32 0, i32 224
  %34 = load ptr, ptr %33, align 8, !tbaa !12
  call void (ptr, ptr, ...) @warnf(ptr noundef %34, ptr noundef @.str.32)
  br label %35

35:                                               ; preds = %31, %27
  br label %36

36:                                               ; preds = %35, %19
  br label %37

37:                                               ; preds = %36, %10
  call void @llvm.lifetime.end.p0(i64 48, ptr %7) #4
  ret void
}