; Function Attrs: nounwind uwtable
define dso_local void @customrequest_helper(ptr noundef readonly captures(none) %0, i32 noundef %1, ptr noundef %2) local_unnamed_addr #1 {
  %.not = icmp eq ptr %2, null
  br i1 %.not, label %17, label %4

4:                                                ; preds = %3
  %5 = zext i32 %1 to i64
  %6 = getelementptr inbounds nuw [6 x ptr], ptr @__const.customrequest_helper.dflt, i64 0, i64 %5
  %7 = load ptr, ptr %6, align 8, !tbaa !24
  %8 = tail call i32 @curl_strequal(ptr noundef nonnull %2, ptr noundef %7) #3
  %.not6 = icmp eq i32 %8, 0
  br i1 %.not6, label %12, label %9

9:                                                ; preds = %4
  %10 = getelementptr inbounds nuw i8, ptr %0, i64 1328
  %11 = load ptr, ptr %10, align 8, !tbaa !8
  tail call void (ptr, ptr, ...) @notef(ptr noundef %11, ptr noundef nonnull @.str.30, ptr noundef %7) #3
  br label %17

12:                                               ; preds = %4
  %13 = tail call i32 @curl_strequal(ptr noundef nonnull %2, ptr noundef nonnull @.str.31) #3
  %.not7 = icmp eq i32 %13, 0
  br i1 %.not7, label %17, label %14

14:                                               ; preds = %12
  %15 = getelementptr inbounds nuw i8, ptr %0, i64 1328
  %16 = load ptr, ptr %15, align 8, !tbaa !8
  tail call void (ptr, ptr, ...) @warnf(ptr noundef %16, ptr noundef nonnull @.str.32) #3
  br label %17

17:                                               ; preds = %9, %14, %12, %3
  ret void
}